target datalayout = "e-m:e-p270:32:32-p271:32:32-p272:64:64-i64:64-i128:128-f80:128-n8:16:32:64-S128"
target triple = "x86_64-pc-linux-gnu"

@rb_eRuntimeError = external global i64, align 8
@current_mode = internal global i32 0, align 4
@.str.34 = private unnamed_addr constant [36 x i8] c"coverage measurement is not enabled\00", align 1
@.str.39 = private unnamed_addr constant [33 x i8] c"../../../ext/coverage/coverage.c\00", align 1

; Function Attrs: inlinehint nounwind sspstrong uwtable
define internal i64 @rb_obj_wb_unprotect(i64 noundef %0, ptr noundef %1, i32 noundef %2) #9 {
  %4 = alloca i64, align 8
  %5 = alloca ptr, align 8
  %6 = alloca i32, align 4
  store i64 %0, ptr %4, align 8, !tbaa !6
  store ptr %1, ptr %5, align 8, !tbaa !15
  store i32 %2, ptr %6, align 4, !tbaa !10
  %7 = load i64, ptr %4, align 8, !tbaa !6
  call void @rb_gc_writebarrier_unprotect(i64 noundef %7)
  %8 = load i64, ptr %4, align 8, !tbaa !6
  ret i64 %8
}

; Function Attrs: inlinehint nounwind sspstrong willreturn memory(none) uwtable
define internal zeroext i1 @RB_TEST(i64 noundef %0) #8 {
  %2 = alloca i64, align 8
  store i64 %0, ptr %2, align 8, !tbaa !6
  %3 = load i64, ptr %2, align 8, !tbaa !6
  %4 = and i64 %3, -5
  %5 = icmp ne i64 %4, 0
  ret i1 %5
}

; Function Attrs: nounwind sspstrong uwtable
define internal i64 @rb_coverage_peek_result(i64 noundef %0) #0 {
  %2 = alloca i64, align 8
  %3 = alloca i64, align 8
  %4 = alloca i64, align 8
  store i64 %0, ptr %2, align 8, !tbaa !6
  call void @llvm.lifetime.start.p0(i64 8, ptr %3) #16
  %5 = call i64 @rb_get_coverages()
  store i64 %5, ptr %3, align 8, !tbaa !6
  call void @llvm.lifetime.start.p0(i64 8, ptr %4) #16
  %6 = call i64 @rb_hash_new()
  store i64 %6, ptr %4, align 8, !tbaa !6
  %7 = load i64, ptr %3, align 8, !tbaa !6
  %8 = call zeroext i1 @RB_TEST(i64 noundef %7) #18
  br i1 %8, label %11, label %9

9:                                                ; preds = %1
  %10 = load i64, ptr @rb_eRuntimeError, align 8, !tbaa !6
  call void (i64, ptr, ...) @rb_raise(i64 noundef %10, ptr noundef @.str.34) #15
  unreachable

11:                                               ; preds = %1
  %12 = load i64, ptr %3, align 8, !tbaa !6
  %13 = call i64 @rb_obj_wb_unprotect(i64 noundef %12, ptr noundef @.str.39, i32 noundef 355)
  %14 = load i64, ptr %3, align 8, !tbaa !6
  %15 = load i64, ptr %4, align 8, !tbaa !6
  call void @rb_hash_foreach(i64 noundef %14, ptr noundef @coverage_peek_result_i, i64 noundef %15)
  %16 = load i32, ptr @current_mode, align 4, !tbaa !10
  %17 = and i32 %16, 4
  %18 = icmp ne i32 %17, 0
  br i1 %18, label %19, label %20

19:                                               ; preds = %11
  call void @rb_objspace_each_objects(ptr noundef @method_coverage_i, ptr noundef %4)
  br label %20

20:                                               ; preds = %19, %11
  %21 = load i64, ptr %4, align 8, !tbaa !6
  %22 = call i64 @rb_hash_freeze(i64 noundef %21)
  %23 = load i64, ptr %4, align 8, !tbaa !6
  call void @llvm.lifetime.end.p0(i64 8, ptr %4) #16
  call void @llvm.lifetime.end.p0(i64 8, ptr %3) #16
  ret i64 %23
}