; Function Attrs: nounwind sspstrong uwtable
define internal i64 @rb_coverage_peek_result(i64 %0) #0 {
  %2 = alloca i64, align 8
  %3 = tail call i64 @rb_get_coverages() #9
  call void @llvm.lifetime.start.p0(i64 8, ptr nonnull %2) #9
  %4 = tail call i64 @rb_hash_new() #9
  store i64 %4, ptr %2, align 8, !tbaa !10
  %5 = and i64 %3, -5
  %.not3 = icmp eq i64 %5, 0
  br i1 %.not3, label %6, label %8

6:                                                ; preds = %1
  %7 = load i64, ptr @rb_eRuntimeError, align 8, !tbaa !10
  tail call void (i64, ptr, ...) @rb_raise(i64 noundef %7, ptr noundef nonnull @.str.34) #8
  unreachable

8:                                                ; preds = %1
  tail call void @rb_gc_writebarrier_unprotect(i64 noundef %3) #9
  tail call void @rb_hash_foreach(i64 noundef %3, ptr noundef nonnull @coverage_peek_result_i, i64 noundef %4) #9
  %9 = load i32, ptr @current_mode, align 4, !tbaa !6
  %10 = and i32 %9, 4
  %.not = icmp eq i32 %10, 0
  br i1 %.not, label %12, label %11

11:                                               ; preds = %8
  call void @rb_objspace_each_objects(ptr noundef nonnull @method_coverage_i, ptr noundef nonnull %2) #9
  %.pre = load i64, ptr %2, align 8, !tbaa !10
  br label %12

12:                                               ; preds = %11, %8
  %13 = phi i64 [ %.pre, %11 ], [ %4, %8 ]
  %14 = call i64 @rb_hash_freeze(i64 noundef %13) #9
  %15 = load i64, ptr %2, align 8, !tbaa !10
  call void @llvm.lifetime.end.p0(i64 8, ptr nonnull %2) #9
  ret i64 %15
}